target datalayout = "e-m:e-p270:32:32-p271:32:32-p272:64:64-i64:64-i128:128-f80:128-n8:16:32:64-S128"
target triple = "x86_64-pc-linux-gnu"

%struct.ImVector.1 = type { i32, i32, ptr }
%struct.ImFont = type <{ %struct.ImVector.7, float, float, %struct.ImVector.1, %struct.ImVector.8, ptr, ptr, ptr, i16, i16, i16, i16, float, float, float, float, float, i32, i8, [1 x i8], [6 x i8] }>
%struct.ImVector.7 = type { i32, i32, ptr }
%struct.ImVector.8 = type { i32, i32, ptr }

; Function Attrs: mustprogress nounwind uwtable
define noundef zeroext i1 @_ZN6ImFont18IsGlyphRangeUnusedEjj(ptr noundef nonnull align 8 dereferenceable(114) %0, i32 noundef %1, i32 noundef %2) #3 align 2 {
  %4 = alloca i1, align 1
  %5 = alloca ptr, align 8
  %6 = alloca i32, align 4
  %7 = alloca i32, align 4
  %8 = alloca i32, align 4
  %9 = alloca i32, align 4
  %10 = alloca i32, align 4
  %11 = alloca i32, align 4
  store ptr %0, ptr %5, align 8, !tbaa !185
  store i32 %1, ptr %6, align 4, !tbaa !27
  store i32 %2, ptr %7, align 4, !tbaa !27
  %12 = load ptr, ptr %5, align 8
  call void @llvm.lifetime.start.p0(i64 4, ptr %8) #17
  %13 = load i32, ptr %6, align 4, !tbaa !27
  %14 = udiv i32 %13, 8192
  store i32 %14, ptr %8, align 4, !tbaa !27
  call void @llvm.lifetime.start.p0(i64 4, ptr %9) #17
  %15 = load i32, ptr %7, align 4, !tbaa !27
  %16 = udiv i32 %15, 8192
  store i32 %16, ptr %9, align 4, !tbaa !27
  call void @llvm.lifetime.start.p0(i64 4, ptr %10) #17
  %17 = load i32, ptr %8, align 4, !tbaa !27
  store i32 %17, ptr %10, align 4, !tbaa !27
  br label %18

18:                                               ; preds = %44, %3
  %19 = load i32, ptr %10, align 4, !tbaa !27
  %20 = load i32, ptr %9, align 4, !tbaa !27
  %21 = icmp ule i32 %19, %20
  br i1 %21, label %23, label %22

22:                                               ; preds = %18
  store i32 2, ptr %11, align 4
  br label %47

23:                                               ; preds = %18
  %24 = load i32, ptr %10, align 4, !tbaa !27
  %25 = lshr i32 %24, 3
  %26 = zext i32 %25 to i64
  %27 = icmp ult i64 %26, 1
  br i1 %27, label %28, label %43

28:                                               ; preds = %23
  %29 = getelementptr inbounds nuw %struct.ImFont, ptr %12, i32 0, i32 19
  %30 = load i32, ptr %10, align 4, !tbaa !27
  %31 = lshr i32 %30, 3
  %32 = zext i32 %31 to i64
  %33 = getelementptr inbounds nuw [1 x i8], ptr %29, i64 0, i64 %32
  %34 = load i8, ptr %33, align 1, !tbaa !41
  %35 = zext i8 %34 to i32
  %36 = load i32, ptr %10, align 4, !tbaa !27
  %37 = and i32 %36, 7
  %38 = shl i32 1, %37
  %39 = and i32 %35, %38
  %40 = icmp ne i32 %39, 0
  br i1 %40, label %41, label %42

41:                                               ; preds = %28
  store i1 false, ptr %4, align 1
  store i32 1, ptr %11, align 4
  br label %47

42:                                               ; preds = %28
  br label %43

43:                                               ; preds = %42, %23
  br label %44

44:                                               ; preds = %43
  %45 = load i32, ptr %10, align 4, !tbaa !27
  %46 = add i32 %45, 1
  store i32 %46, ptr %10, align 4, !tbaa !27
  br label %18, !llvm.loop !528

47:                                               ; preds = %41, %22
  call void @llvm.lifetime.end.p0(i64 4, ptr %10) #17
  %48 = load i32, ptr %11, align 4
  switch i32 %48, label %50 [
    i32 2, label %49
  ]

49:                                               ; preds = %47
  store i1 true, ptr %4, align 1
  store i32 1, ptr %11, align 4
  br label %50

50:                                               ; preds = %49, %47
  call void @llvm.lifetime.end.p0(i64 4, ptr %9) #17
  call void @llvm.lifetime.end.p0(i64 4, ptr %8) #17
  %51 = load i1, ptr %4, align 1
  ret i1 %51
}