; Function Attrs: mustprogress nofree norecurse nosync nounwind willreturn memory(argmem: read) uwtable
define noundef zeroext i1 @_ZN6ImFont18IsGlyphRangeUnusedEjj(ptr noundef nonnull readonly align 8 captures(none) dereferenceable(114) %0, i32 noundef %1, i32 noundef %2) local_unnamed_addr #35 align 2 {
  %4 = lshr i32 %1, 13
  %5 = lshr i32 %2, 13
  %.not15 = icmp samesign ugt i32 %4, %5
  br i1 %.not15, label %.critedge, label %.lr.ph

.lr.ph:                                           ; preds = %3
  %6 = getelementptr inbounds nuw i8, ptr %0, i64 113
  %7 = load i8, ptr %6, align 1
  %8 = zext i8 %7 to i32
  br label %9

9:                                                ; preds = %.lr.ph, %14
  %.01116 = phi i32 [ %4, %.lr.ph ], [ %15, %14 ]
  %10 = icmp samesign ult i32 %.01116, 8
  br i1 %10, label %11, label %14

11:                                               ; preds = %9
  %12 = shl nuw nsw i32 1, %.01116
  %13 = and i32 %12, %8
  %.not14 = icmp eq i32 %13, 0
  br i1 %.not14, label %14, label %.critedge

14:                                               ; preds = %9, %11
  %15 = add nuw nsw i32 %.01116, 1
  %exitcond.not = icmp eq i32 %.01116, %5
  br i1 %exitcond.not, label %.critedge, label %9, !llvm.loop !566

.critedge:                                        ; preds = %11, %14, %3
  %.not.lcssa = phi i1 [ true, %3 ], [ true, %14 ], [ false, %11 ]
  ret i1 %.not.lcssa
}